; Function Attrs: nounwind uwtable
define dso_local i64 @HUF_decompress1X_DCtx_wksp(ptr noundef %0, ptr noundef %1, i64 noundef %2, ptr noundef %3, i64 noundef %4, ptr noundef %5, i64 noundef %6, i32 noundef %7) local_unnamed_addr #0 {
  %9 = icmp eq i64 %2, 0
  br i1 %9, label %HUF_decompress1X2_DCtx_wksp.exit, label %10

10:                                               ; preds = %8
  %11 = icmp ugt i64 %4, %2
  br i1 %11, label %HUF_decompress1X2_DCtx_wksp.exit, label %12

12:                                               ; preds = %10
  %13 = icmp eq i64 %4, %2
  br i1 %13, label %14, label %15

14:                                               ; preds = %12
  tail call void @llvm.memcpy.p0.p0.i64(ptr align 1 %1, ptr align 1 %3, i64 %2, i1 false)
  br label %HUF_decompress1X2_DCtx_wksp.exit

15:                                               ; preds = %12
  %16 = icmp eq i64 %4, 1
  br i1 %16, label %17, label %19

17:                                               ; preds = %15
  %18 = load i8, ptr %3, align 1
  tail call void @llvm.memset.p0.i64(ptr align 1 %1, i8 %18, i64 %2, i1 false)
  br label %HUF_decompress1X2_DCtx_wksp.exit

19:                                               ; preds = %15
  %.not.i = icmp ult i64 %4, %2
  br i1 %.not.i, label %20, label %HUF_selectDecoder.exit

20:                                               ; preds = %19
  %21 = shl i64 %4, 4
  %22 = udiv i64 %21, %2
  %23 = and i64 %22, 4294967295
  br label %HUF_selectDecoder.exit

HUF_selectDecoder.exit:                           ; preds = %19, %20
  %24 = phi i64 [ %23, %20 ], [ 15, %19 ]
  %25 = lshr i64 %2, 8
  %26 = trunc i64 %25 to i32
  %27 = getelementptr inbounds nuw [16 x [2 x %struct.algo_time_t]], ptr @algoTime, i64 0, i64 %24
  %28 = load i32, ptr %27, align 16
  %29 = getelementptr inbounds nuw i8, ptr %27, i64 4
  %30 = load i32, ptr %29, align 4
  %31 = mul i32 %30, %26
  %32 = add i32 %31, %28
  %33 = getelementptr inbounds nuw i8, ptr %27, i64 8
  %34 = load i32, ptr %33, align 8
  %35 = getelementptr inbounds nuw i8, ptr %27, i64 12
  %36 = load i32, ptr %35, align 4
  %37 = mul i32 %36, %26
  %38 = add i32 %37, %34
  %39 = lshr i32 %38, 5
  %40 = add i32 %39, %38
  %.not = icmp ult i32 %40, %32
  br i1 %.not, label %41, label %49

41:                                               ; preds = %HUF_selectDecoder.exit
  %42 = tail call i64 @HUF_readDTableX2_wksp(ptr noundef %0, ptr noundef %3, i64 noundef %4, ptr noundef %5, i64 noundef %6, i32 noundef %7)
  %43 = icmp ult i64 %42, -119
  br i1 %43, label %44, label %HUF_decompress1X2_DCtx_wksp.exit

44:                                               ; preds = %41
  %.not23.i = icmp ult i64 %42, %4
  br i1 %.not23.i, label %45, label %HUF_decompress1X2_DCtx_wksp.exit

45:                                               ; preds = %44
  %46 = getelementptr inbounds i8, ptr %3, i64 %42
  %47 = sub nuw i64 %4, %42
  %48 = tail call fastcc i64 @HUF_decompress1X2_usingDTable_internal(ptr noundef %1, i64 noundef %2, ptr noundef %46, i64 noundef %47, ptr noundef %0)
  br label %HUF_decompress1X2_DCtx_wksp.exit

49:                                               ; preds = %HUF_selectDecoder.exit
  %50 = tail call i64 @HUF_readDTableX1_wksp(ptr noundef %0, ptr noundef %3, i64 noundef %4, ptr noundef %5, i64 noundef %6, i32 noundef %7)
  %51 = icmp ult i64 %50, -119
  br i1 %51, label %52, label %HUF_decompress1X2_DCtx_wksp.exit

52:                                               ; preds = %49
  %.not23.i36 = icmp ult i64 %50, %4
  br i1 %.not23.i36, label %53, label %HUF_decompress1X2_DCtx_wksp.exit

53:                                               ; preds = %52
  %54 = getelementptr inbounds i8, ptr %3, i64 %50
  %55 = sub nuw i64 %4, %50
  %56 = tail call fastcc i64 @HUF_decompress1X1_usingDTable_internal(ptr noundef %1, i64 noundef %2, ptr noundef %54, i64 noundef %55, ptr noundef %0)
  br label %HUF_decompress1X2_DCtx_wksp.exit

HUF_decompress1X2_DCtx_wksp.exit:                 ; preds = %53, %52, %49, %45, %44, %41, %10, %8, %17, %14
  %.0 = phi i64 [ %2, %14 ], [ %2, %17 ], [ -70, %8 ], [ -20, %10 ], [ %48, %45 ], [ %42, %41 ], [ -72, %44 ], [ %56, %53 ], [ %50, %49 ], [ -72, %52 ]
  ret i64 %.0
}